target datalayout = "e-m:e-p270:32:32-p271:32:32-p272:64:64-i64:64-i128:128-f80:128-n8:16:32:64-S128"
target triple = "x86_64-pc-linux-gnu"

%"struct.vcpkg::StringView" = type { ptr, i64 }
%"struct.vcpkg::Optional.250" = type { %"struct.vcpkg::details::OptionalStorage.251" }
%"struct.vcpkg::details::OptionalStorage.251" = type { i8, %union.anon.252 }
%union.anon.252 = type { i8 }

@.str.5 = private unnamed_addr constant [8 x i8] c"dynamic\00", align 1
@.str.6 = private unnamed_addr constant [7 x i8] c"static\00", align 1

; Function Attrs: mustprogress nounwind uwtable
define linkonce_odr dso_local void @_ZN5vcpkg7details15OptionalStorageINS_11LinkageTypeELb1EEC2Ev(ptr noundef nonnull align 1 dereferenceable(2) %0) unnamed_addr #4 comdat align 2 {
  %2 = alloca ptr, align 8
  store ptr %0, ptr %2, align 8
  %3 = load ptr, ptr %2, align 8
  %4 = getelementptr inbounds %"struct.vcpkg::details::OptionalStorage.251", ptr %3, i32 0, i32 0
  store i8 0, ptr %4, align 1
  %5 = getelementptr inbounds %"struct.vcpkg::details::OptionalStorage.251", ptr %3, i32 0, i32 1
  store i8 0, ptr %5, align 1
  ret void
}

; Function Attrs: mustprogress nounwind uwtable
define linkonce_odr dso_local void @_ZN5vcpkg7details15OptionalStorageINS_11LinkageTypeELb1EEC2EOS2_(ptr noundef nonnull align 1 dereferenceable(2) %0, ptr noundef nonnull align 1 dereferenceable(1) %1) unnamed_addr #4 comdat align 2 {
  %3 = alloca ptr, align 8
  %4 = alloca ptr, align 8
  store ptr %0, ptr %3, align 8
  store ptr %1, ptr %4, align 8
  %5 = load ptr, ptr %3, align 8
  %6 = getelementptr inbounds %"struct.vcpkg::details::OptionalStorage.251", ptr %5, i32 0, i32 0
  store i8 1, ptr %6, align 1
  %7 = getelementptr inbounds %"struct.vcpkg::details::OptionalStorage.251", ptr %5, i32 0, i32 1
  %8 = load ptr, ptr %4, align 8
  %9 = load i8, ptr %8, align 1
  store i8 %9, ptr %7, align 1
  ret void
}

; Function Attrs: mustprogress nounwind uwtable
define linkonce_odr dso_local void @_ZN5vcpkg8OptionalINS_11LinkageTypeEEC2ENS_7NullOptE(ptr noundef nonnull align 1 dereferenceable(2) %0) unnamed_addr #4 comdat align 2 {
  %2 = alloca ptr, align 8
  store ptr %0, ptr %2, align 8
  %3 = load ptr, ptr %2, align 8
  call void @_ZN5vcpkg7details15OptionalStorageINS_11LinkageTypeELb1EEC2Ev(ptr noundef nonnull align 1 dereferenceable(2) %3) #8
  ret void
}

; Function Attrs: mustprogress nounwind uwtable
define linkonce_odr dso_local void @_ZN5vcpkg8OptionalINS_11LinkageTypeEEC2IS1_TnNSt9enable_ifIXaantsr3stdE9is_same_vINSt5decayIT_E4typeES2_Esr3stdE18is_constructible_vINS_7details15OptionalStorageIS1_Lb1EEES6_EEiE4typeELi0EEEOS6_(ptr noundef nonnull align 1 dereferenceable(2) %0, ptr noundef nonnull align 1 dereferenceable(1) %1) unnamed_addr #4 comdat align 2 {
  %3 = alloca ptr, align 8
  %4 = alloca ptr, align 8
  store ptr %0, ptr %3, align 8
  store ptr %1, ptr %4, align 8
  %5 = load ptr, ptr %3, align 8
  %6 = load ptr, ptr %4, align 8
  call void @_ZN5vcpkg7details15OptionalStorageINS_11LinkageTypeELb1EEC2EOS2_(ptr noundef nonnull align 1 dereferenceable(2) %5, ptr noundef nonnull align 1 dereferenceable(1) %6) #8
  ret void
}

; Function Attrs: mustprogress nounwind uwtable
define linkonce_odr dso_local void @_ZN5vcpkg10StringViewC2EPKc(ptr noundef nonnull align 8 dereferenceable(16) %0, ptr noundef %1) unnamed_addr #4 comdat align 2 {
  %3 = alloca ptr, align 8
  %4 = alloca ptr, align 8
  store ptr %0, ptr %3, align 8
  store ptr %1, ptr %4, align 8
  %5 = load ptr, ptr %3, align 8
  %6 = getelementptr inbounds %"struct.vcpkg::StringView", ptr %5, i32 0, i32 0
  %7 = load ptr, ptr %4, align 8
  store ptr %7, ptr %6, align 8
  %8 = getelementptr inbounds %"struct.vcpkg::StringView", ptr %5, i32 0, i32 1
  %9 = load ptr, ptr %4, align 8
  %10 = call i64 @strlen(ptr noundef %9) #23
  store i64 %10, ptr %8, align 8
  ret void
}

; Function Attrs: mustprogress nounwind uwtable
define dso_local void @_ZN5vcpkg15to_linkage_typeENS_10StringViewE(ptr dead_on_unwind noalias writable sret(%"struct.vcpkg::Optional.250") align 1 %0, ptr %1, i64 %2) #4 {
  %4 = alloca ptr, align 8
  %5 = alloca %"struct.vcpkg::StringView", align 8
  %6 = alloca %"struct.vcpkg::StringView", align 8
  %7 = alloca %"struct.vcpkg::StringView", align 8
  %8 = alloca i8, align 1
  %9 = alloca %"struct.vcpkg::StringView", align 8
  %10 = alloca %"struct.vcpkg::StringView", align 8
  %11 = alloca i8, align 1
  store ptr %0, ptr %4, align 8
  %12 = getelementptr inbounds { ptr, i64 }, ptr %5, i32 0, i32 0
  store ptr %1, ptr %12, align 8
  %13 = getelementptr inbounds { ptr, i64 }, ptr %5, i32 0, i32 1
  store i64 %2, ptr %13, align 8
  call void @llvm.memcpy.p0.p0.i64(ptr align 8 %6, ptr align 8 %5, i64 16, i1 false)
  call void @_ZN5vcpkg10StringViewC2EPKc(ptr noundef nonnull align 8 dereferenceable(16) %7, ptr noundef @.str.5) #8
  %14 = getelementptr inbounds { ptr, i64 }, ptr %6, i32 0, i32 0
  %15 = load ptr, ptr %14, align 8
  %16 = getelementptr inbounds { ptr, i64 }, ptr %6, i32 0, i32 1
  %17 = load i64, ptr %16, align 8
  %18 = getelementptr inbounds { ptr, i64 }, ptr %7, i32 0, i32 0
  %19 = load ptr, ptr %18, align 8
  %20 = getelementptr inbounds { ptr, i64 }, ptr %7, i32 0, i32 1
  %21 = load i64, ptr %20, align 8
  %22 = call noundef zeroext i1 @_ZN5vcpkgeqENS_10StringViewES0_(ptr %15, i64 %17, ptr %19, i64 %21) #8
  br i1 %22, label %23, label %24

23:                                               ; preds = %3
  store i8 0, ptr %8, align 1
  call void @_ZN5vcpkg8OptionalINS_11LinkageTypeEEC2IS1_TnNSt9enable_ifIXaantsr3stdE9is_same_vINSt5decayIT_E4typeES2_Esr3stdE18is_constructible_vINS_7details15OptionalStorageIS1_Lb1EEES6_EEiE4typeELi0EEEOS6_(ptr noundef nonnull align 1 dereferenceable(2) %0, ptr noundef nonnull align 1 dereferenceable(1) %8) #8
  br label %36

24:                                               ; preds = %3
  call void @llvm.memcpy.p0.p0.i64(ptr align 8 %9, ptr align 8 %5, i64 16, i1 false)
  call void @_ZN5vcpkg10StringViewC2EPKc(ptr noundef nonnull align 8 dereferenceable(16) %10, ptr noundef @.str.6) #8
  %25 = getelementptr inbounds { ptr, i64 }, ptr %9, i32 0, i32 0
  %26 = load ptr, ptr %25, align 8
  %27 = getelementptr inbounds { ptr, i64 }, ptr %9, i32 0, i32 1
  %28 = load i64, ptr %27, align 8
  %29 = getelementptr inbounds { ptr, i64 }, ptr %10, i32 0, i32 0
  %30 = load ptr, ptr %29, align 8
  %31 = getelementptr inbounds { ptr, i64 }, ptr %10, i32 0, i32 1
  %32 = load i64, ptr %31, align 8
  %33 = call noundef zeroext i1 @_ZN5vcpkgeqENS_10StringViewES0_(ptr %26, i64 %28, ptr %30, i64 %32) #8
  br i1 %33, label %34, label %35

34:                                               ; preds = %24
  store i8 1, ptr %11, align 1
  call void @_ZN5vcpkg8OptionalINS_11LinkageTypeEEC2IS1_TnNSt9enable_ifIXaantsr3stdE9is_same_vINSt5decayIT_E4typeES2_Esr3stdE18is_constructible_vINS_7details15OptionalStorageIS1_Lb1EEES6_EEiE4typeELi0EEEOS6_(ptr noundef nonnull align 1 dereferenceable(2) %0, ptr noundef nonnull align 1 dereferenceable(1) %11) #8
  br label %36

35:                                               ; preds = %24
  call void @_ZN5vcpkg8OptionalINS_11LinkageTypeEEC2ENS_7NullOptE(ptr noundef nonnull align 1 dereferenceable(2) %0) #8
  br label %36

36:                                               ; preds = %35, %34, %23
  ret void
}