; Function Attrs: mustprogress nounwind uwtable
define dso_local void @_ZN5vcpkg15to_linkage_typeENS_10StringViewE(ptr dead_on_unwind noalias nocapture writable writeonly sret(%"struct.vcpkg::Optional.250") align 1 %0, ptr %1, i64 %2) local_unnamed_addr #6 {
  %4 = tail call noundef zeroext i1 @_ZN5vcpkgeqENS_10StringViewES0_(ptr %1, i64 %2, ptr nonnull @.str.5, i64 7) #25
  br i1 %4, label %7, label %5

5:                                                ; preds = %3
  %6 = tail call noundef zeroext i1 @_ZN5vcpkgeqENS_10StringViewES0_(ptr %1, i64 %2, ptr nonnull @.str.6, i64 6) #25
  %. = zext i1 %6 to i8
  br label %7

7:                                                ; preds = %5, %3
  %.sink8 = phi i8 [ 1, %3 ], [ %., %5 ]
  %.sink = phi i8 [ 0, %3 ], [ %., %5 ]
  %8 = getelementptr inbounds i8, ptr %0, i64 1
  store i8 %.sink8, ptr %0, align 1
  store i8 %.sink, ptr %8, align 1
  ret void
}